target datalayout = "e-m:e-p270:32:32-p271:32:32-p272:64:64-i64:64-i128:128-f80:128-n8:16:32:64-S128"
target triple = "x86_64-pc-linux-gnu"

@_ZL11dataVersion = internal constant [4 x i8] c"\10\00\00\00", align 1

; Function Attrs: mustprogress nounwind uwtable
define void @u_getUnicodeVersion_77(ptr noundef %0) #0 {
  %2 = alloca ptr, align 8
  store ptr %0, ptr %2, align 8, !tbaa !24
  %3 = load ptr, ptr %2, align 8, !tbaa !24
  %4 = icmp ne ptr %3, null
  br i1 %4, label %5, label %9

5:                                                ; preds = %1
  br label %6

6:                                                ; preds = %5
  %7 = load ptr, ptr %2, align 8, !tbaa !24
  call void @llvm.memcpy.p0.p0.i64(ptr align 1 %7, ptr align 1 @_ZL11dataVersion, i64 4, i1 false)
  br label %8

8:                                                ; preds = %6
  br label %9

9:                                                ; preds = %8, %1
  ret void
}