; Function Attrs: mustprogress nofree norecurse nosync nounwind willreturn memory(argmem: write) uwtable
define void @u_getUnicodeVersion_77(ptr noundef writeonly %0) local_unnamed_addr #4 {
  %.not = icmp eq ptr %0, null
  br i1 %.not, label %3, label %2

2:                                                ; preds = %1
  store i32 16, ptr %0, align 1
  br label %3

3:                                                ; preds = %2, %1
  ret void
}